target datalayout = "e-m:e-p270:32:32-p271:32:32-p272:64:64-i64:64-i128:128-f80:128-n8:16:32:64-S128"
target triple = "x86_64-pc-linux-gnu"

%"struct.nanogui::Array" = type { [2 x i32] }
%"class.nanogui::Widget" = type <{ %"class.nanogui::Object.base", [4 x i8], ptr, %"class.nanogui::ref", %"class.nanogui::ref.0", %"struct.nanogui::Array", %"struct.nanogui::Array", %"struct.nanogui::Array", %"class.std::vector", i8, i8, i8, i8, [4 x i8], %"class.std::__cxx11::basic_string", i32, float, i32, [4 x i8] }>
%"class.nanogui::Object.base" = type <{ ptr, %"struct.std::atomic" }>
%"struct.std::atomic" = type { %"struct.std::__atomic_base" }
%"struct.std::__atomic_base" = type { i32 }
%"class.nanogui::ref" = type { ptr }
%"class.nanogui::ref.0" = type { ptr }
%"class.std::vector" = type { %"struct.std::_Vector_base" }
%"struct.std::_Vector_base" = type { %"struct.std::_Vector_base<nanogui::Widget *, std::allocator<nanogui::Widget *>>::_Vector_impl" }
%"struct.std::_Vector_base<nanogui::Widget *, std::allocator<nanogui::Widget *>>::_Vector_impl" = type { %"struct.std::_Vector_base<nanogui::Widget *, std::allocator<nanogui::Widget *>>::_Vector_impl_data" }
%"struct.std::_Vector_base<nanogui::Widget *, std::allocator<nanogui::Widget *>>::_Vector_impl_data" = type { ptr, ptr, ptr }
%"class.std::__cxx11::basic_string" = type { %"struct.std::__cxx11::basic_string<char>::_Alloc_hider", i64, %union.anon }
%"struct.std::__cxx11::basic_string<char>::_Alloc_hider" = type { ptr }
%union.anon = type { i64, [8 x i8] }
%"class.nanogui::Theme" = type { %"class.nanogui::Object.base", i32, i32, i32, i32, float, i32, i32, i32, i32, i32, i32, i32, float, i32, i32, i32, i32, i32, i32, %"class.nanogui::Color", %"class.nanogui::Color", %"class.nanogui::Color", %"class.nanogui::Color", %"class.nanogui::Color", %"class.nanogui::Color", %"class.nanogui::Color", %"class.nanogui::Color", %"class.nanogui::Color", %"class.nanogui::Color", %"class.nanogui::Color", %"class.nanogui::Color", %"class.nanogui::Color", %"class.nanogui::Color", %"class.nanogui::Color", %"class.nanogui::Color", %"class.nanogui::Color", %"class.nanogui::Color", %"class.nanogui::Color", %"class.nanogui::Color", %"class.nanogui::Color", %"class.nanogui::Color", %"class.nanogui::Color", %"class.nanogui::Color", %"class.nanogui::Color", i32, i32, i32, i32, i32, i32, i32, i32, i32, i32 }
%"class.nanogui::Color" = type { %"struct.nanogui::Array.4" }
%"struct.nanogui::Array.4" = type { [4 x float] }
%"class.nanogui::PopupButton" = type <{ %"class.nanogui::Button", ptr, i32, [4 x i8] }>
%"class.nanogui::Button" = type { %"class.nanogui::Widget.base", %"class.std::__cxx11::basic_string", i32, i32, i8, i32, %"class.nanogui::Color", %"class.nanogui::Color", %"class.std::function", %"class.std::function.5", %"class.std::vector.7" }
%"class.nanogui::Widget.base" = type <{ %"class.nanogui::Object.base", [4 x i8], ptr, %"class.nanogui::ref", %"class.nanogui::ref.0", %"struct.nanogui::Array", %"struct.nanogui::Array", %"struct.nanogui::Array", %"class.std::vector", i8, i8, i8, i8, [4 x i8], %"class.std::__cxx11::basic_string", i32, float, i32 }>
%"class.std::function" = type { %"class.std::_Function_base", ptr }
%"class.std::_Function_base" = type { %"union.std::_Any_data", ptr }
%"union.std::_Any_data" = type { %"union.std::_Nocopy_types" }
%"union.std::_Nocopy_types" = type { { i64, i64 } }
%"class.std::function.5" = type { %"class.std::_Function_base", ptr }
%"class.std::vector.7" = type { %"struct.std::_Vector_base.8" }
%"struct.std::_Vector_base.8" = type { %"struct.std::_Vector_base<nanogui::Button *, std::allocator<nanogui::Button *>>::_Vector_impl" }
%"struct.std::_Vector_base<nanogui::Button *, std::allocator<nanogui::Button *>>::_Vector_impl" = type { %"struct.std::_Vector_base<nanogui::Button *, std::allocator<nanogui::Button *>>::_Vector_impl_data" }
%"struct.std::_Vector_base<nanogui::Button *, std::allocator<nanogui::Button *>>::_Vector_impl_data" = type { ptr, ptr, ptr }
%"class.nanogui::Popup" = type <{ %"class.nanogui::Window.base", [6 x i8], ptr, %"struct.nanogui::Array", i32, i32, i32, [4 x i8] }>
%"class.nanogui::Window.base" = type <{ %"class.nanogui::Widget.base", [4 x i8], %"class.std::__cxx11::basic_string", ptr, i8, i8 }>

; Function Attrs: mustprogress nounwind uwtable
define linkonce_odr hidden void @_ZN7nanogui5Popup8set_sideENS0_4SideE(ptr noundef nonnull align 8 dereferenceable(220) %0, i32 noundef %1) #2 comdat align 2 {
  %3 = alloca ptr, align 8
  %4 = alloca i32, align 4
  store ptr %0, ptr %3, align 8
  store i32 %1, ptr %4, align 4
  %5 = load ptr, ptr %3, align 8
  %6 = load i32, ptr %4, align 4
  %7 = getelementptr inbounds %"class.nanogui::Popup", ptr %5, i32 0, i32 6
  store i32 %6, ptr %7, align 8
  ret void
}

; Function Attrs: mustprogress nounwind uwtable
define linkonce_odr hidden void @_ZN7nanogui11PopupButton16set_chevron_iconEi(ptr noundef nonnull align 8 dereferenceable(324) %0, i32 noundef %1) #2 comdat align 2 {
  %3 = alloca ptr, align 8
  %4 = alloca i32, align 4
  store ptr %0, ptr %3, align 8
  store i32 %1, ptr %4, align 4
  %5 = load ptr, ptr %3, align 8
  %6 = load i32, ptr %4, align 4
  %7 = getelementptr inbounds %"class.nanogui::PopupButton", ptr %5, i32 0, i32 2
  store i32 %6, ptr %7, align 8
  ret void
}

; Function Attrs: mustprogress nounwind uwtable
define linkonce_odr hidden noundef ptr @_ZN7nanogui3refINS_5ThemeEEptEv(ptr noundef nonnull align 8 dereferenceable(8) %0) #2 comdat align 2 {
  %2 = alloca ptr, align 8
  store ptr %0, ptr %2, align 8
  %3 = load ptr, ptr %2, align 8
  %4 = getelementptr inbounds %"class.nanogui::ref", ptr %3, i32 0, i32 0
  %5 = load ptr, ptr %4, align 8
  ret ptr %5
}

; Function Attrs: mustprogress nounwind uwtable
define linkonce_odr hidden noundef i32 @_ZNK7nanogui5Popup4sideEv(ptr noundef nonnull align 8 dereferenceable(220) %0) #2 comdat align 2 {
  %2 = alloca ptr, align 8
  store ptr %0, ptr %2, align 8
  %3 = load ptr, ptr %2, align 8
  %4 = getelementptr inbounds %"class.nanogui::Popup", ptr %3, i32 0, i32 6
  %5 = load i32, ptr %4, align 8
  ret i32 %5
}

; Function Attrs: mustprogress uwtable
define hidden void @_ZN7nanogui11PopupButton8set_sideENS_5Popup4SideE(ptr noundef nonnull align 8 dereferenceable(324) %0, i32 noundef %1) #0 align 2 {
  %3 = alloca ptr, align 8
  %4 = alloca i32, align 4
  store ptr %0, ptr %3, align 8
  store i32 %1, ptr %4, align 4
  %5 = load ptr, ptr %3, align 8
  %6 = getelementptr inbounds %"class.nanogui::PopupButton", ptr %5, i32 0, i32 1
  %7 = load ptr, ptr %6, align 8
  %8 = call noundef i32 @_ZNK7nanogui5Popup4sideEv(ptr noundef nonnull align 8 dereferenceable(220) %7)
  %9 = icmp eq i32 %8, 1
  br i1 %9, label %10, label %23

10:                                               ; preds = %2
  %11 = getelementptr inbounds %"class.nanogui::PopupButton", ptr %5, i32 0, i32 2
  %12 = load i32, ptr %11, align 8
  %13 = getelementptr inbounds %"class.nanogui::Widget", ptr %5, i32 0, i32 3
  %14 = call noundef ptr @_ZN7nanogui3refINS_5ThemeEEptEv(ptr noundef nonnull align 8 dereferenceable(8) %13)
  %15 = getelementptr inbounds %"class.nanogui::Theme", ptr %14, i32 0, i32 51
  %16 = load i32, ptr %15, align 8
  %17 = icmp eq i32 %12, %16
  br i1 %17, label %18, label %23

18:                                               ; preds = %10
  %19 = getelementptr inbounds %"class.nanogui::Widget", ptr %5, i32 0, i32 3
  %20 = call noundef ptr @_ZN7nanogui3refINS_5ThemeEEptEv(ptr noundef nonnull align 8 dereferenceable(8) %19)
  %21 = getelementptr inbounds %"class.nanogui::Theme", ptr %20, i32 0, i32 52
  %22 = load i32, ptr %21, align 4
  call void @_ZN7nanogui11PopupButton16set_chevron_iconEi(ptr noundef nonnull align 8 dereferenceable(324) %5, i32 noundef %22)
  br label %42

23:                                               ; preds = %10, %2
  %24 = getelementptr inbounds %"class.nanogui::PopupButton", ptr %5, i32 0, i32 1
  %25 = load ptr, ptr %24, align 8
  %26 = call noundef i32 @_ZNK7nanogui5Popup4sideEv(ptr noundef nonnull align 8 dereferenceable(220) %25)
  %27 = icmp eq i32 %26, 0
  br i1 %27, label %28, label %41

28:                                               ; preds = %23
  %29 = getelementptr inbounds %"class.nanogui::PopupButton", ptr %5, i32 0, i32 2
  %30 = load i32, ptr %29, align 8
  %31 = getelementptr inbounds %"class.nanogui::Widget", ptr %5, i32 0, i32 3
  %32 = call noundef ptr @_ZN7nanogui3refINS_5ThemeEEptEv(ptr noundef nonnull align 8 dereferenceable(8) %31)
  %33 = getelementptr inbounds %"class.nanogui::Theme", ptr %32, i32 0, i32 52
  %34 = load i32, ptr %33, align 4
  %35 = icmp eq i32 %30, %34
  br i1 %35, label %36, label %41

36:                                               ; preds = %28
  %37 = getelementptr inbounds %"class.nanogui::Widget", ptr %5, i32 0, i32 3
  %38 = call noundef ptr @_ZN7nanogui3refINS_5ThemeEEptEv(ptr noundef nonnull align 8 dereferenceable(8) %37)
  %39 = getelementptr inbounds %"class.nanogui::Theme", ptr %38, i32 0, i32 51
  %40 = load i32, ptr %39, align 8
  call void @_ZN7nanogui11PopupButton16set_chevron_iconEi(ptr noundef nonnull align 8 dereferenceable(324) %5, i32 noundef %40)
  br label %41

41:                                               ; preds = %36, %28, %23
  br label %42

42:                                               ; preds = %41, %18
  %43 = getelementptr inbounds %"class.nanogui::PopupButton", ptr %5, i32 0, i32 1
  %44 = load ptr, ptr %43, align 8
  %45 = load i32, ptr %4, align 4
  call void @_ZN7nanogui5Popup8set_sideENS0_4SideE(ptr noundef nonnull align 8 dereferenceable(220) %44, i32 noundef %45)
  ret void
}