; Function Attrs: mustprogress nofree norecurse nosync nounwind willreturn memory(readwrite, inaccessiblemem: none) uwtable
define hidden void @_ZN7nanogui11PopupButton8set_sideENS_5Popup4SideE(ptr nocapture noundef nonnull align 8 dereferenceable(324) %0, i32 noundef %1) local_unnamed_addr #8 align 2 {
  %3 = getelementptr inbounds i8, ptr %0, i64 312
  %4 = load ptr, ptr %3, align 8
  %5 = getelementptr inbounds i8, ptr %4, i64 216
  %6 = load i32, ptr %5, align 8
  switch i32 %6, label %.thread [
    i32 1, label %7
    i32 0, label %18
  ]

7:                                                ; preds = %2
  %8 = getelementptr inbounds i8, ptr %0, i64 320
  %9 = load i32, ptr %8, align 8
  %10 = getelementptr inbounds i8, ptr %0, i64 24
  %11 = load ptr, ptr %10, align 8
  %12 = getelementptr inbounds i8, ptr %11, i64 512
  %13 = load i32, ptr %12, align 8
  %14 = icmp eq i32 %9, %13
  br i1 %14, label %15, label %.thread

15:                                               ; preds = %7
  %16 = getelementptr inbounds i8, ptr %11, i64 516
  %17 = load i32, ptr %16, align 4
  store i32 %17, ptr %8, align 8
  br label %.thread

18:                                               ; preds = %2
  %19 = getelementptr inbounds i8, ptr %0, i64 320
  %20 = load i32, ptr %19, align 8
  %21 = getelementptr inbounds i8, ptr %0, i64 24
  %22 = load ptr, ptr %21, align 8
  %23 = getelementptr inbounds i8, ptr %22, i64 516
  %24 = load i32, ptr %23, align 4
  %25 = icmp eq i32 %20, %24
  br i1 %25, label %26, label %.thread

26:                                               ; preds = %18
  %27 = getelementptr inbounds i8, ptr %22, i64 512
  %28 = load i32, ptr %27, align 8
  store i32 %28, ptr %19, align 8
  br label %.thread

.thread:                                          ; preds = %2, %7, %18, %26, %15
  store i32 %1, ptr %5, align 8
  ret void
}